; Function Attrs: nounwind uwtable
define dso_local i32 @check_commit_signature(ptr noundef %0, ptr noundef initializes((48, 49)) %1) local_unnamed_addr #0 {
  %3 = alloca i64, align 8
  %4 = alloca %struct.strbuf, align 8
  %5 = alloca %struct.strbuf, align 8
  call void @llvm.lifetime.start.p0(i64 24, ptr nonnull %4) #24
  call void @llvm.memcpy.p0.p0.i64(ptr noundef nonnull align 8 dereferenceable(24) %4, ptr noundef nonnull align 8 dereferenceable(24) @__const.convert_commit_extra_headers.out, i64 24, i1 false)
  call void @llvm.lifetime.start.p0(i64 24, ptr nonnull %5) #24
  call void @llvm.memcpy.p0.p0.i64(ptr noundef nonnull align 8 dereferenceable(24) %5, ptr noundef nonnull align 8 dereferenceable(24) @__const.convert_commit_extra_headers.out, i64 24, i1 false)
  %6 = getelementptr inbounds nuw i8, ptr %1, i64 48
  store i8 78, ptr %6, align 8, !tbaa !157
  %7 = load ptr, ptr @the_repository, align 8, !tbaa !4
  %8 = getelementptr inbounds nuw i8, ptr %7, i64 400
  %9 = load ptr, ptr %8, align 8, !tbaa !84
  call void @llvm.lifetime.start.p0(i64 8, ptr nonnull %3) #24
  %10 = call ptr @repo_get_commit_buffer(ptr noundef %7, ptr noundef %0, ptr noundef nonnull %3)
  %11 = load i64, ptr %3, align 8, !tbaa !82
  %12 = call i32 @parse_buffer_signed_by_header(ptr noundef nonnull %10, i64 noundef %11, ptr noundef nonnull %4, ptr noundef nonnull %5, ptr noundef %9)
  %13 = load ptr, ptr @the_repository, align 8, !tbaa !4
  %14 = getelementptr inbounds nuw i8, ptr %13, i64 24
  %15 = load ptr, ptr %14, align 8, !tbaa !12
  %16 = getelementptr inbounds nuw i8, ptr %15, i64 112
  %17 = load ptr, ptr %16, align 8, !tbaa !76
  %18 = getelementptr i8, ptr %0, i64 64
  %.val.i.i = load i32, ptr %18, align 8, !tbaa !77
  %19 = load i32, ptr %17, align 8, !tbaa !70
  %20 = udiv i32 %.val.i.i, %19
  %21 = urem i32 %.val.i.i, %19
  %22 = getelementptr inbounds nuw i8, ptr %17, i64 8
  %23 = load i32, ptr %22, align 8, !tbaa !71
  %.not.i.i.i.i = icmp ugt i32 %23, %20
  br i1 %.not.i.i.i.i, label %._crit_edge4.i.i.i.i, label %buffer_slab_peek.exit.thread.i.i

._crit_edge4.i.i.i.i:                             ; preds = %2
  %.phi.trans.insert.i.i.i.i = getelementptr inbounds nuw i8, ptr %17, i64 16
  %.pre.i.i.i.i = load ptr, ptr %.phi.trans.insert.i.i.i.i, align 8, !tbaa !72
  %24 = zext i32 %20 to i64
  %25 = getelementptr inbounds nuw ptr, ptr %.pre.i.i.i.i, i64 %24
  %26 = load ptr, ptr %25, align 8, !tbaa !73
  %.not35.i.i.i.i = icmp eq ptr %26, null
  br i1 %.not35.i.i.i.i, label %buffer_slab_peek.exit.thread.i.i, label %buffer_slab_peek.exit.i.i

buffer_slab_peek.exit.i.i:                        ; preds = %._crit_edge4.i.i.i.i
  %27 = getelementptr inbounds nuw i8, ptr %17, i64 4
  %28 = load i32, ptr %27, align 4, !tbaa !67
  %29 = mul i32 %28, %21
  %30 = zext i32 %29 to i64
  %31 = getelementptr inbounds nuw %struct.commit_buffer, ptr %26, i64 %30
  %32 = load ptr, ptr %31, align 8, !tbaa !79
  %33 = icmp eq ptr %32, %10
  br i1 %33, label %parse_signed_commit.exit, label %buffer_slab_peek.exit.thread.i.i

buffer_slab_peek.exit.thread.i.i:                 ; preds = %buffer_slab_peek.exit.i.i, %._crit_edge4.i.i.i.i, %2
  call void @free(ptr noundef nonnull %10) #24
  br label %parse_signed_commit.exit

parse_signed_commit.exit:                         ; preds = %buffer_slab_peek.exit.i.i, %buffer_slab_peek.exit.thread.i.i
  call void @llvm.lifetime.end.p0(i64 8, ptr nonnull %3) #24
  %.not.not = icmp eq i32 %12, 0
  br i1 %.not.not, label %43, label %34

34:                                               ; preds = %parse_signed_commit.exit
  %35 = getelementptr inbounds nuw i8, ptr %1, i64 16
  store i32 1, ptr %35, align 8, !tbaa !159
  %36 = getelementptr inbounds nuw i8, ptr %1, i64 8
  %37 = call ptr @strbuf_detach(ptr noundef nonnull %4, ptr noundef nonnull %36) #24
  store ptr %37, ptr %1, align 8, !tbaa !160
  %38 = getelementptr inbounds nuw i8, ptr %5, i64 16
  %39 = load ptr, ptr %38, align 8, !tbaa !57
  %40 = getelementptr inbounds nuw i8, ptr %5, i64 8
  %41 = load i64, ptr %40, align 8, !tbaa !55
  %42 = call i32 @check_signature(ptr noundef nonnull %1, ptr noundef %39, i64 noundef %41) #24
  br label %43

43:                                               ; preds = %parse_signed_commit.exit, %34
  %.0 = phi i32 [ 1, %parse_signed_commit.exit ], [ %42, %34 ]
  call void @strbuf_release(ptr noundef nonnull %4) #24
  call void @strbuf_release(ptr noundef nonnull %5) #24
  call void @llvm.lifetime.end.p0(i64 24, ptr nonnull %5) #24
  call void @llvm.lifetime.end.p0(i64 24, ptr nonnull %4) #24
  ret i32 %.0
}